target datalayout = "e-m:e-p270:32:32-p271:32:32-p272:64:64-i64:64-i128:128-f80:128-n8:16:32:64-S128"
target triple = "x86_64-unknown-linux-gnu"

%class.pdecl_manager = type { ptr, ptr, %class.id_gen, %class.obj_map, %class.ptr_hashtable, %class.ptr_vector, ptr, i32, ptr, %class.obj_map.3, %class.obj_hashtable, %class.ptr_vector.10, %class.svector, %class.svector.12, %class.svector }
%class.id_gen = type { i32, %class.svector }
%class.obj_map = type { %class.core_hashtable }
%class.core_hashtable = type <{ ptr, i32, i32, i32, [4 x i8] }>
%class.ptr_hashtable = type { %class.core_hashtable.base.1, [4 x i8] }
%class.core_hashtable.base.1 = type <{ ptr, i32, i32, i32 }>
%class.ptr_vector = type { %class.vector.2 }
%class.vector.2 = type { ptr }
%class.obj_map.3 = type { %class.core_hashtable.4 }
%class.core_hashtable.4 = type <{ ptr, i32, i32, i32, [4 x i8] }>
%class.obj_hashtable = type { %class.core_hashtable.base.9, [4 x i8] }
%class.core_hashtable.base.9 = type <{ ptr, i32, i32, i32 }>
%class.ptr_vector.10 = type { %class.vector.11 }
%class.vector.11 = type { ptr }
%class.svector.12 = type { %class.vector.13 }
%class.vector.13 = type { ptr }
%class.svector = type { %class.vector }
%class.vector = type { ptr }

@_ZN15pdatatypes_declC1EjjR13pdecl_managerjPKP14pdatatype_decl = hidden unnamed_addr alias void (ptr, i32, i32, ptr, i32, ptr), ptr @_ZN15pdatatypes_declC2EjjR13pdecl_managerjPKP14pdatatype_decl

; Function Attrs: mustprogress nounwind uwtable
define linkonce_odr hidden noundef nonnull align 4 dereferenceable(4) ptr @_ZN6vectorIjLb0EjEixEj(ptr noundef nonnull align 8 dereferenceable(8) %this, i32 noundef %idx) #5 comdat align 2 {
entry:
  %this.addr = alloca ptr, align 8
  %idx.addr = alloca i32, align 4
  store ptr %this, ptr %this.addr, align 8
  store i32 %idx, ptr %idx.addr, align 4
  %this1 = load ptr, ptr %this.addr, align 8
  %m_data = getelementptr inbounds %class.vector, ptr %this1, i32 0, i32 0
  %0 = load ptr, ptr %m_data, align 8
  %1 = load i32, ptr %idx.addr, align 4
  %idxprom = zext i32 %1 to i64
  %arrayidx = getelementptr inbounds i32, ptr %0, i64 %idxprom
  ret ptr %arrayidx
}

; Function Attrs: mustprogress nounwind uwtable
define linkonce_odr hidden noundef i32 @_ZNK6vectorIjLb0EjE4sizeEv(ptr noundef nonnull align 8 dereferenceable(8) %this) #5 comdat align 2 {
entry:
  %retval = alloca i32, align 4
  %this.addr = alloca ptr, align 8
  store ptr %this, ptr %this.addr, align 8
  %this1 = load ptr, ptr %this.addr, align 8
  %m_data = getelementptr inbounds %class.vector, ptr %this1, i32 0, i32 0
  %0 = load ptr, ptr %m_data, align 8
  %cmp = icmp eq ptr %0, null
  br i1 %cmp, label %if.then, label %if.end

if.then:                                          ; preds = %entry
  store i32 0, ptr %retval, align 4
  br label %return

if.end:                                           ; preds = %entry
  %m_data2 = getelementptr inbounds %class.vector, ptr %this1, i32 0, i32 0
  %1 = load ptr, ptr %m_data2, align 8
  %arrayidx = getelementptr inbounds i32, ptr %1, i64 -1
  %2 = load i32, ptr %arrayidx, align 4
  store i32 %2, ptr %retval, align 4
  br label %return

return:                                           ; preds = %if.end, %if.then
  %3 = load i32, ptr %retval, align 4
  ret i32 %3
}

; Function Attrs: mustprogress nounwind uwtable
define linkonce_odr hidden void @_ZN6vectorIjLb0EjE8pop_backEv(ptr noundef nonnull align 8 dereferenceable(8) %this) #5 comdat align 2 {
entry:
  %this.addr = alloca ptr, align 8
  store ptr %this, ptr %this.addr, align 8
  %this1 = load ptr, ptr %this.addr, align 8
  %m_data = getelementptr inbounds %class.vector, ptr %this1, i32 0, i32 0
  %0 = load ptr, ptr %m_data, align 8
  %arrayidx = getelementptr inbounds i32, ptr %0, i64 -1
  %1 = load i32, ptr %arrayidx, align 4
  %dec = add i32 %1, -1
  store i32 %dec, ptr %arrayidx, align 4
  ret void
}

; Function Attrs: mustprogress uwtable
define linkonce_odr hidden noundef nonnull align 4 dereferenceable(4) ptr @_ZN6vectorIjLb0EjE4backEv(ptr noundef nonnull align 8 dereferenceable(8) %this) #4 comdat align 2 {
entry:
  %this.addr = alloca ptr, align 8
  store ptr %this, ptr %this.addr, align 8
  %this1 = load ptr, ptr %this.addr, align 8
  %call = call noundef i32 @_ZNK6vectorIjLb0EjE4sizeEv(ptr noundef nonnull align 8 dereferenceable(8) %this1)
  %sub = sub i32 %call, 1
  %call2 = call noundef nonnull align 4 dereferenceable(4) ptr @_ZN6vectorIjLb0EjEixEj(ptr noundef nonnull align 8 dereferenceable(8) %this1, i32 noundef %sub)
  ret ptr %call2
}

; Function Attrs: mustprogress nounwind uwtable
define linkonce_odr hidden noundef zeroext i1 @_ZNK6vectorIjLb0EjE5emptyEv(ptr noundef nonnull align 8 dereferenceable(8) %this) #5 comdat align 2 {
entry:
  %this.addr = alloca ptr, align 8
  store ptr %this, ptr %this.addr, align 8
  %this1 = load ptr, ptr %this.addr, align 8
  %m_data = getelementptr inbounds %class.vector, ptr %this1, i32 0, i32 0
  %0 = load ptr, ptr %m_data, align 8
  %cmp = icmp eq ptr %0, null
  br i1 %cmp, label %lor.end, label %lor.rhs

lor.rhs:                                          ; preds = %entry
  %m_data2 = getelementptr inbounds %class.vector, ptr %this1, i32 0, i32 0
  %1 = load ptr, ptr %m_data2, align 8
  %arrayidx = getelementptr inbounds i32, ptr %1, i64 -1
  %2 = load i32, ptr %arrayidx, align 4
  %cmp3 = icmp eq i32 %2, 0
  br label %lor.end

lor.end:                                          ; preds = %lor.rhs, %entry
  %3 = phi i1 [ true, %entry ], [ %cmp3, %lor.rhs ]
  ret i1 %3
}

; Function Attrs: mustprogress uwtable
define linkonce_odr hidden noundef i32 @_ZN6id_gen2mkEv(ptr noundef nonnull align 8 dereferenceable(16) %this) #4 comdat align 2 {
entry:
  %this.addr = alloca ptr, align 8
  %r = alloca i32, align 4
  store ptr %this, ptr %this.addr, align 8
  %this1 = load ptr, ptr %this.addr, align 8
  %m_free_ids = getelementptr inbounds %class.id_gen, ptr %this1, i32 0, i32 1
  %call = call noundef zeroext i1 @_ZNK6vectorIjLb0EjE5emptyEv(ptr noundef nonnull align 8 dereferenceable(8) %m_free_ids)
  br i1 %call, label %if.then, label %if.else

if.then:                                          ; preds = %entry
  %m_next_id = getelementptr inbounds %class.id_gen, ptr %this1, i32 0, i32 0
  %0 = load i32, ptr %m_next_id, align 8
  store i32 %0, ptr %r, align 4
  %m_next_id2 = getelementptr inbounds %class.id_gen, ptr %this1, i32 0, i32 0
  %1 = load i32, ptr %m_next_id2, align 8
  %inc = add i32 %1, 1
  store i32 %inc, ptr %m_next_id2, align 8
  br label %if.end

if.else:                                          ; preds = %entry
  %m_free_ids3 = getelementptr inbounds %class.id_gen, ptr %this1, i32 0, i32 1
  %call4 = call noundef nonnull align 4 dereferenceable(4) ptr @_ZN6vectorIjLb0EjE4backEv(ptr noundef nonnull align 8 dereferenceable(8) %m_free_ids3)
  %2 = load i32, ptr %call4, align 4
  store i32 %2, ptr %r, align 4
  %m_free_ids5 = getelementptr inbounds %class.id_gen, ptr %this1, i32 0, i32 1
  call void @_ZN6vectorIjLb0EjE8pop_backEv(ptr noundef nonnull align 8 dereferenceable(8) %m_free_ids5)
  br label %if.end

if.end:                                           ; preds = %if.else, %if.then
  %3 = load i32, ptr %r, align 4
  ret i32 %3
}

; Function Attrs: mustprogress nounwind uwtable
define linkonce_odr hidden noundef nonnull align 8 dereferenceable(520) ptr @_ZNK13pdecl_manager1aEv(ptr noundef nonnull align 8 dereferenceable(192) %this) #5 comdat align 2 {
entry:
  %this.addr = alloca ptr, align 8
  store ptr %this, ptr %this.addr, align 8
  %this1 = load ptr, ptr %this.addr, align 8
  %m_allocator = getelementptr inbounds %class.pdecl_manager, ptr %this1, i32 0, i32 1
  %0 = load ptr, ptr %m_allocator, align 8
  ret ptr %0
}

; Function Attrs: mustprogress uwtable
define hidden noundef ptr @_ZN13pdecl_manager18mk_pdatatypes_declEjjPKP14pdatatype_decl(ptr noundef nonnull align 8 dereferenceable(192) %this, i32 noundef %num_params, i32 noundef %num, ptr noundef %dts) #4 align 2 {
entry:
  %this.addr = alloca ptr, align 8
  %num_params.addr = alloca i32, align 4
  %num.addr = alloca i32, align 4
  %dts.addr = alloca ptr, align 8
  store ptr %this, ptr %this.addr, align 8
  store i32 %num_params, ptr %num_params.addr, align 4
  store i32 %num, ptr %num.addr, align 4
  store ptr %dts, ptr %dts.addr, align 8
  %this1 = load ptr, ptr %this.addr, align 8
  %call = call noundef nonnull align 8 dereferenceable(520) ptr @_ZNK13pdecl_manager1aEv(ptr noundef nonnull align 8 dereferenceable(192) %this1)
  %call2 = call noundef ptr @_ZN22small_object_allocator8allocateEm(ptr noundef nonnull align 8 dereferenceable(520) %call, i64 noundef 32)
  %m_id_gen = getelementptr inbounds %class.pdecl_manager, ptr %this1, i32 0, i32 2
  %call3 = call noundef i32 @_ZN6id_gen2mkEv(ptr noundef nonnull align 8 dereferenceable(16) %m_id_gen)
  %0 = load i32, ptr %num_params.addr, align 4
  %1 = load i32, ptr %num.addr, align 4
  %2 = load ptr, ptr %dts.addr, align 8
  call void @_ZN15pdatatypes_declC1EjjR13pdecl_managerjPKP14pdatatype_decl(ptr noundef nonnull align 8 dereferenceable(32) %call2, i32 noundef %call3, i32 noundef %0, ptr noundef nonnull align 8 dereferenceable(192) %this1, i32 noundef %1, ptr noundef %2)
  ret ptr %call2
}