; Function Attrs: mustprogress uwtable
define hidden noundef ptr @_ZN13pdecl_manager18mk_pdatatypes_declEjjPKP14pdatatype_decl(ptr nocapture noundef nonnull align 8 dereferenceable(192) %this, i32 noundef %num_params, i32 noundef %num, ptr nocapture noundef readonly %dts) local_unnamed_addr #3 align 2 personality ptr @__gxx_personality_v0 {
entry:
  %m_allocator.i = getelementptr inbounds i8, ptr %this, i64 8
  %0 = load ptr, ptr %m_allocator.i, align 8
  %call2 = tail call noundef ptr @_ZN22small_object_allocator8allocateEm(ptr noundef nonnull align 8 dereferenceable(520) %0, i64 noundef 32)
  %m_id_gen = getelementptr inbounds i8, ptr %this, i64 16
  %m_free_ids.i = getelementptr inbounds i8, ptr %this, i64 24
  %1 = load ptr, ptr %m_free_ids.i, align 8
  %cmp.i.i = icmp eq ptr %1, null
  br i1 %cmp.i.i, label %if.then.i, label %_ZNK6vectorIjLb0EjE5emptyEv.exit.i

_ZNK6vectorIjLb0EjE5emptyEv.exit.i:               ; preds = %entry
  %arrayidx.i.i = getelementptr inbounds i8, ptr %1, i64 -4
  %2 = load i32, ptr %arrayidx.i.i, align 4
  %cmp3.i.i = icmp eq i32 %2, 0
  br i1 %cmp3.i.i, label %if.then.i, label %_ZN6vectorIjLb0EjE4backEv.exit.i

if.then.i:                                        ; preds = %_ZNK6vectorIjLb0EjE5emptyEv.exit.i, %entry
  %3 = load i32, ptr %m_id_gen, align 8
  %inc.i = add i32 %3, 1
  store i32 %inc.i, ptr %m_id_gen, align 8
  br label %_ZN6id_gen2mkEv.exit

_ZN6vectorIjLb0EjE4backEv.exit.i:                 ; preds = %_ZNK6vectorIjLb0EjE5emptyEv.exit.i
  %4 = add i32 %2, -1
  %5 = zext i32 %4 to i64
  %arrayidx.i1.i.i = getelementptr inbounds i32, ptr %1, i64 %5
  %6 = load i32, ptr %arrayidx.i1.i.i, align 4
  store i32 %4, ptr %arrayidx.i.i, align 4
  br label %_ZN6id_gen2mkEv.exit

_ZN6id_gen2mkEv.exit:                             ; preds = %if.then.i, %_ZN6vectorIjLb0EjE4backEv.exit.i
  %r.0.i = phi i32 [ %3, %if.then.i ], [ %6, %_ZN6vectorIjLb0EjE4backEv.exit.i ]
  %m_id.i.i = getelementptr inbounds i8, ptr %call2, i64 8
  store i32 %r.0.i, ptr %m_id.i.i, align 8
  %m_num_params.i.i = getelementptr inbounds i8, ptr %call2, i64 12
  store i32 %num_params, ptr %m_num_params.i.i, align 4
  %m_ref_count.i.i = getelementptr inbounds i8, ptr %call2, i64 16
  store i32 0, ptr %m_ref_count.i.i, align 8
  store ptr getelementptr inbounds ({ [10 x ptr] }, ptr @_ZTV15pdatatypes_decl, i64 0, i32 0, i64 2), ptr %call2, align 8
  %m_datatypes.i = getelementptr inbounds i8, ptr %call2, i64 24
  store ptr null, ptr %m_datatypes.i, align 8
  %cmp3.not.i.i.i = icmp eq i32 %num, 0
  br i1 %cmp3.not.i.i.i, label %_ZN15pdatatypes_declC2EjjR13pdecl_managerjPKP14pdatatype_decl.exit, label %for.body.preheader.i.i.i

for.body.preheader.i.i.i:                         ; preds = %_ZN6id_gen2mkEv.exit
  %wide.trip.count.i.i.i = zext i32 %num to i64
  br label %for.body.i.i.i

for.bodythread-pre-split.i.i.i:                   ; preds = %_ZN6vectorIP14pdatatype_declLb0EjE9push_backERKS1_.exit.i.i.i
  %.pr.i.i.i = load ptr, ptr %m_datatypes.i, align 8
  br label %for.body.i.i.i

for.body.i.i.i:                                   ; preds = %for.bodythread-pre-split.i.i.i, %for.body.preheader.i.i.i
  %7 = phi ptr [ %.pr.i.i.i, %for.bodythread-pre-split.i.i.i ], [ null, %for.body.preheader.i.i.i ]
  %indvars.iv.i.i.i = phi i64 [ %indvars.iv.next.i.i.i, %for.bodythread-pre-split.i.i.i ], [ 0, %for.body.preheader.i.i.i ]
  %arrayidx.i.i.i = getelementptr inbounds ptr, ptr %dts, i64 %indvars.iv.i.i.i
  %cmp.i.i.i.i = icmp eq ptr %7, null
  br i1 %cmp.i.i.i.i, label %if.then.i.i.i.i, label %lor.lhs.false.i.i.i.i

lor.lhs.false.i.i.i.i:                            ; preds = %for.body.i.i.i
  %arrayidx.i.i.i.i = getelementptr inbounds i8, ptr %7, i64 -4
  %8 = load i32, ptr %arrayidx.i.i.i.i, align 4
  %arrayidx4.i.i.i.i = getelementptr inbounds i8, ptr %7, i64 -8
  %9 = load i32, ptr %arrayidx4.i.i.i.i, align 4
  %cmp5.i.i.i.i = icmp eq i32 %8, %9
  br i1 %cmp5.i.i.i.i, label %if.then.i.i.i.i, label %_ZN6vectorIP14pdatatype_declLb0EjE9push_backERKS1_.exit.i.i.i

if.then.i.i.i.i:                                  ; preds = %lor.lhs.false.i.i.i.i, %for.body.i.i.i
  tail call void @_ZN6vectorIP14pdatatype_declLb0EjE13expand_vectorEv(ptr noundef nonnull align 8 dereferenceable(8) %m_datatypes.i)
  %.pre.i.i.i.i = load ptr, ptr %m_datatypes.i, align 8
  %arrayidx8.phi.trans.insert.i.i.i.i = getelementptr inbounds i8, ptr %.pre.i.i.i.i, i64 -4
  %.pre1.i.i.i.i = load i32, ptr %arrayidx8.phi.trans.insert.i.i.i.i, align 4
  br label %_ZN6vectorIP14pdatatype_declLb0EjE9push_backERKS1_.exit.i.i.i

_ZN6vectorIP14pdatatype_declLb0EjE9push_backERKS1_.exit.i.i.i: ; preds = %if.then.i.i.i.i, %lor.lhs.false.i.i.i.i
  %10 = phi i32 [ %.pre1.i.i.i.i, %if.then.i.i.i.i ], [ %8, %lor.lhs.false.i.i.i.i ]
  %11 = phi ptr [ %.pre.i.i.i.i, %if.then.i.i.i.i ], [ %7, %lor.lhs.false.i.i.i.i ]
  %idx.ext.i.i.i.i = zext i32 %10 to i64
  %add.ptr.i.i.i.i = getelementptr inbounds ptr, ptr %11, i64 %idx.ext.i.i.i.i
  %12 = load ptr, ptr %arrayidx.i.i.i, align 8
  store ptr %12, ptr %add.ptr.i.i.i.i, align 8
  %13 = load ptr, ptr %m_datatypes.i, align 8
  %arrayidx10.i.i.i.i = getelementptr inbounds i8, ptr %13, i64 -4
  %14 = load i32, ptr %arrayidx10.i.i.i.i, align 4
  %inc.i.i.i.i = add i32 %14, 1
  store i32 %inc.i.i.i.i, ptr %arrayidx10.i.i.i.i, align 4
  %indvars.iv.next.i.i.i = add nuw nsw i64 %indvars.iv.i.i.i, 1
  %exitcond.not.i.i.i = icmp eq i64 %indvars.iv.next.i.i.i, %wide.trip.count.i.i.i
  br i1 %exitcond.not.i.i.i, label %for.body.i.i, label %for.bodythread-pre-split.i.i.i, !llvm.loop !40

for.body.i.i:                                     ; preds = %_ZN6vectorIP14pdatatype_declLb0EjE9push_backERKS1_.exit.i.i.i, %_ZN13pdecl_manager7inc_refEP5pdecl.exit.i.i
  %indvars.iv.i.i = phi i64 [ %indvars.iv.next.i.i, %_ZN13pdecl_manager7inc_refEP5pdecl.exit.i.i ], [ 0, %_ZN6vectorIP14pdatatype_declLb0EjE9push_backERKS1_.exit.i.i.i ]
  %arrayidx.i.i1 = getelementptr inbounds ptr, ptr %dts, i64 %indvars.iv.i.i
  %15 = load ptr, ptr %arrayidx.i.i1, align 8
  %tobool.not.i.i.i = icmp eq ptr %15, null
  br i1 %tobool.not.i.i.i, label %_ZN13pdecl_manager7inc_refEP5pdecl.exit.i.i, label %if.then.i.i.i

if.then.i.i.i:                                    ; preds = %for.body.i.i
  %m_ref_count.i.i.i.i = getelementptr inbounds i8, ptr %15, i64 16
  %16 = load i32, ptr %m_ref_count.i.i.i.i, align 8
  %inc.i.i.i7.i = add i32 %16, 1
  store i32 %inc.i.i.i7.i, ptr %m_ref_count.i.i.i.i, align 8
  br label %_ZN13pdecl_manager7inc_refEP5pdecl.exit.i.i

_ZN13pdecl_manager7inc_refEP5pdecl.exit.i.i:      ; preds = %if.then.i.i.i, %for.body.i.i
  %indvars.iv.next.i.i = add nuw nsw i64 %indvars.iv.i.i, 1
  %exitcond.not.i.i = icmp eq i64 %indvars.iv.next.i.i, %wide.trip.count.i.i.i
  br i1 %exitcond.not.i.i, label %invoke.cont3.i, label %for.body.i.i, !llvm.loop !41

invoke.cont3.i:                                   ; preds = %_ZN13pdecl_manager7inc_refEP5pdecl.exit.i.i
  %.pr.i = load ptr, ptr %m_datatypes.i, align 8
  %cmp.i.i.i = icmp eq ptr %.pr.i, null
  br i1 %cmp.i.i.i, label %_ZN15pdatatypes_declC2EjjR13pdecl_managerjPKP14pdatatype_decl.exit, label %_ZN6vectorIP14pdatatype_declLb0EjE3endEv.exit.i

_ZN6vectorIP14pdatatype_declLb0EjE3endEv.exit.i:  ; preds = %invoke.cont3.i
  %arrayidx.i.i8.i = getelementptr inbounds i8, ptr %.pr.i, i64 -4
  %17 = load i32, ptr %arrayidx.i.i8.i, align 4
  %18 = zext i32 %17 to i64
  %add.ptr.i.i = getelementptr inbounds ptr, ptr %.pr.i, i64 %18
  %cmp.not10.i = icmp eq i32 %17, 0
  br i1 %cmp.not10.i, label %_ZN15pdatatypes_declC2EjjR13pdecl_managerjPKP14pdatatype_decl.exit, label %for.body.i

for.body.i:                                       ; preds = %_ZN6vectorIP14pdatatype_declLb0EjE3endEv.exit.i, %for.body.i
  %__begin1.011.i = phi ptr [ %incdec.ptr.i, %for.body.i ], [ %.pr.i, %_ZN6vectorIP14pdatatype_declLb0EjE3endEv.exit.i ]
  %19 = load ptr, ptr %__begin1.011.i, align 8
  %m_parent.i = getelementptr inbounds i8, ptr %19, i64 56
  store ptr %call2, ptr %m_parent.i, align 8
  %incdec.ptr.i = getelementptr inbounds i8, ptr %__begin1.011.i, i64 8
  %cmp.not.i = icmp eq ptr %incdec.ptr.i, %add.ptr.i.i
  br i1 %cmp.not.i, label %_ZN15pdatatypes_declC2EjjR13pdecl_managerjPKP14pdatatype_decl.exit, label %for.body.i

_ZN15pdatatypes_declC2EjjR13pdecl_managerjPKP14pdatatype_decl.exit: ; preds = %for.body.i, %_ZN6id_gen2mkEv.exit, %invoke.cont3.i, %_ZN6vectorIP14pdatatype_declLb0EjE3endEv.exit.i
  ret ptr %call2
}